; Function Attrs: mustprogress uwtable
define internal noundef nonnull ptr @_ZN7testing8internal24ParameterizedTestFactoryIN12_GLOBAL__N_129CondVarWaitDeadlock_Test_TestEE10CreateTestEv(ptr noundef nonnull align 8 dereferenceable(12) %this) unnamed_addr #3 align 2 personality ptr @__gxx_personality_v0 {
entry:
  %parameter_ = getelementptr inbounds i8, ptr %this, i64 8
  store ptr %parameter_, ptr @_ZN7testing18WithParamInterfaceIiE10parameter_E, align 8
  %call = tail call noalias noundef nonnull dereferenceable(48) ptr @_Znwm(i64 noundef 48) #36
  invoke void @_ZN7testing4TestC2Ev(ptr noundef nonnull align 8 dereferenceable(16) %call)
          to label %.noexc unwind label %lpad

.noexc:                                           ; preds = %entry
  %0 = getelementptr inbounds i8, ptr %call, i64 16
  store ptr getelementptr inbounds ({ [8 x ptr], [4 x ptr] }, ptr @_ZTVN12_GLOBAL__N_119CondVarWaitDeadlockE, i64 0, i32 0, i64 2), ptr %call, align 8
  store ptr getelementptr inbounds ({ [8 x ptr], [4 x ptr] }, ptr @_ZTVN12_GLOBAL__N_119CondVarWaitDeadlockE, i64 0, i32 1, i64 2), ptr %0, align 8
  %mu.i.i = getelementptr inbounds i8, ptr %call, i64 24
  tail call void @llvm.memset.p0.i64(ptr noundef nonnull align 8 dereferenceable(18) %mu.i.i, i8 0, i64 18, i1 false)
  %call.i.i = invoke noundef nonnull align 4 dereferenceable(4) ptr @_ZN7testing18WithParamInterfaceIiE8GetParamEv()
          to label %invoke.cont4.i.i unwind label %lpad2.i.i

invoke.cont4.i.i:                                 ; preds = %.noexc
  %1 = load i32, ptr %call.i.i, align 4
  %read_lock1.i.i = getelementptr inbounds i8, ptr %call, i64 42
  %2 = trunc i32 %1 to i8
  %frombool.i.i = and i8 %2, 1
  store i8 %frombool.i.i, ptr %read_lock1.i.i, align 2
  %call6.i.i = invoke noundef nonnull align 4 dereferenceable(4) ptr @_ZN7testing18WithParamInterfaceIiE8GetParamEv()
          to label %invoke.cont5.i.i unwind label %lpad2.i.i

invoke.cont5.i.i:                                 ; preds = %invoke.cont4.i.i
  %3 = load i32, ptr %call6.i.i, align 4
  %read_lock2.i.i = getelementptr inbounds i8, ptr %call, i64 43
  %4 = trunc i32 %3 to i8
  %5 = lshr i8 %4, 1
  %frombool9.i.i = and i8 %5, 1
  store i8 %frombool9.i.i, ptr %read_lock2.i.i, align 1
  %call11.i.i = invoke noundef nonnull align 4 dereferenceable(4) ptr @_ZN7testing18WithParamInterfaceIiE8GetParamEv()
          to label %invoke.cont unwind label %lpad2.i.i

lpad2.i.i:                                        ; preds = %invoke.cont5.i.i, %invoke.cont4.i.i, %.noexc
  %6 = landingpad { ptr, i32 }
          cleanup
  tail call void @_ZN7testing4TestD2Ev(ptr noundef nonnull align 8 dereferenceable(16) %call) #34
  br label %lpad.body

invoke.cont:                                      ; preds = %invoke.cont5.i.i
  %7 = load i32, ptr %call11.i.i, align 4
  %signal_unlocked.i.i = getelementptr inbounds i8, ptr %call, i64 44
  %8 = trunc i32 %7 to i8
  %9 = lshr i8 %8, 2
  %frombool14.i.i = and i8 %9, 1
  store i8 %frombool14.i.i, ptr %signal_unlocked.i.i, align 4
  store ptr getelementptr inbounds ({ [8 x ptr], [4 x ptr] }, ptr @_ZTVN12_GLOBAL__N_129CondVarWaitDeadlock_Test_TestE, i64 0, i32 0, i64 2), ptr %call, align 8
  store ptr getelementptr inbounds ({ [8 x ptr], [4 x ptr] }, ptr @_ZTVN12_GLOBAL__N_129CondVarWaitDeadlock_Test_TestE, i64 0, i32 1, i64 2), ptr %0, align 8
  ret ptr %call

lpad:                                             ; preds = %entry
  %10 = landingpad { ptr, i32 }
          cleanup
  br label %lpad.body

lpad.body:                                        ; preds = %lpad2.i.i, %lpad
  %eh.lpad-body = phi { ptr, i32 } [ %10, %lpad ], [ %6, %lpad2.i.i ]
  tail call void @_ZdlPv(ptr noundef nonnull %call) #37
  resume { ptr, i32 } %eh.lpad-body
}